target datalayout = "e-m:e-p270:32:32-p271:32:32-p272:64:64-i64:64-i128:128-f80:128-n8:16:32:64-S128"
target triple = "x86_64-unknown-linux-gnu"

%"class.icu_75::UnicodeString" = type { %"class.icu_75::Replaceable", %"union.icu_75::UnicodeString::StackBufferOrFields" }
%"class.icu_75::Replaceable" = type { %"class.icu_75::UObject" }
%"class.icu_75::UObject" = type { ptr }
%"union.icu_75::UnicodeString::StackBufferOrFields" = type { %struct.anon.0, [32 x i8] }
%struct.anon.0 = type { i16, i32, i32, ptr }
%struct.anon = type { i16, [27 x i16] }

; Function Attrs: mustprogress nounwind uwtable
define linkonce_odr noundef ptr @_ZNK6icu_7513UnicodeString13getArrayStartEv(ptr noundef nonnull align 8 dereferenceable(64) %this) #0 comdat align 2 {
entry:
  %this.addr = alloca ptr, align 8
  store ptr %this, ptr %this.addr, align 8
  %this1 = load ptr, ptr %this.addr, align 8
  %fUnion = getelementptr inbounds %"class.icu_75::UnicodeString", ptr %this1, i32 0, i32 1
  %fLengthAndFlags = getelementptr inbounds %struct.anon.0, ptr %fUnion, i32 0, i32 0
  %0 = load i16, ptr %fLengthAndFlags, align 8
  %conv = sext i16 %0 to i32
  %and = and i32 %conv, 2
  %tobool = icmp ne i32 %and, 0
  br i1 %tobool, label %cond.true, label %cond.false

cond.true:                                        ; preds = %entry
  %fUnion2 = getelementptr inbounds %"class.icu_75::UnicodeString", ptr %this1, i32 0, i32 1
  %fBuffer = getelementptr inbounds %struct.anon, ptr %fUnion2, i32 0, i32 1
  %arraydecay = getelementptr inbounds [27 x i16], ptr %fBuffer, i64 0, i64 0
  br label %cond.end

cond.false:                                       ; preds = %entry
  %fUnion3 = getelementptr inbounds %"class.icu_75::UnicodeString", ptr %this1, i32 0, i32 1
  %fArray = getelementptr inbounds %struct.anon.0, ptr %fUnion3, i32 0, i32 3
  %1 = load ptr, ptr %fArray, align 8
  br label %cond.end

cond.end:                                         ; preds = %cond.false, %cond.true
  %cond = phi ptr [ %arraydecay, %cond.true ], [ %1, %cond.false ]
  ret ptr %cond
}

; Function Attrs: mustprogress uwtable
define linkonce_odr noundef zeroext i16 @_ZNK6icu_7513UnicodeString8doCharAtEi(ptr noundef nonnull align 8 dereferenceable(64) %this, i32 noundef %offset) #1 comdat align 2 {
entry:
  %retval = alloca i16, align 2
  %this.addr = alloca ptr, align 8
  %offset.addr = alloca i32, align 4
  store ptr %this, ptr %this.addr, align 8
  store i32 %offset, ptr %offset.addr, align 4
  %this1 = load ptr, ptr %this.addr, align 8
  %0 = load i32, ptr %offset.addr, align 4
  %call = call noundef i32 @_ZNK6icu_7513UnicodeString6lengthEv(ptr noundef nonnull align 8 dereferenceable(64) %this1)
  %cmp = icmp ult i32 %0, %call
  br i1 %cmp, label %if.then, label %if.else

if.then:                                          ; preds = %entry
  %call2 = call noundef ptr @_ZNK6icu_7513UnicodeString13getArrayStartEv(ptr noundef nonnull align 8 dereferenceable(64) %this1)
  %1 = load i32, ptr %offset.addr, align 4
  %idxprom = sext i32 %1 to i64
  %arrayidx = getelementptr inbounds i16, ptr %call2, i64 %idxprom
  %2 = load i16, ptr %arrayidx, align 2
  store i16 %2, ptr %retval, align 2
  br label %return

if.else:                                          ; preds = %entry
  store i16 -1, ptr %retval, align 2
  br label %return

return:                                           ; preds = %if.else, %if.then
  %3 = load i16, ptr %retval, align 2
  ret i16 %3
}

; Function Attrs: mustprogress uwtable
define linkonce_odr noundef zeroext i16 @_ZNK6icu_7513UnicodeString6charAtEi(ptr noundef nonnull align 8 dereferenceable(64) %this, i32 noundef %offset) #1 comdat align 2 {
entry:
  %this.addr = alloca ptr, align 8
  %offset.addr = alloca i32, align 4
  store ptr %this, ptr %this.addr, align 8
  store i32 %offset, ptr %offset.addr, align 4
  %this1 = load ptr, ptr %this.addr, align 8
  %0 = load i32, ptr %offset.addr, align 4
  %call = call noundef zeroext i16 @_ZNK6icu_7513UnicodeString8doCharAtEi(ptr noundef nonnull align 8 dereferenceable(64) %this1, i32 noundef %0)
  ret i16 %call
}

; Function Attrs: mustprogress nounwind uwtable
define linkonce_odr noundef i32 @_ZNK6icu_7513UnicodeString14getShortLengthEv(ptr noundef nonnull align 8 dereferenceable(64) %this) #0 comdat align 2 {
entry:
  %this.addr = alloca ptr, align 8
  store ptr %this, ptr %this.addr, align 8
  %this1 = load ptr, ptr %this.addr, align 8
  %fUnion = getelementptr inbounds %"class.icu_75::UnicodeString", ptr %this1, i32 0, i32 1
  %fLengthAndFlags = getelementptr inbounds %struct.anon.0, ptr %fUnion, i32 0, i32 0
  %0 = load i16, ptr %fLengthAndFlags, align 8
  %conv = sext i16 %0 to i32
  %shr = ashr i32 %conv, 5
  ret i32 %shr
}

; Function Attrs: mustprogress nounwind uwtable
define linkonce_odr noundef signext i8 @_ZNK6icu_7513UnicodeString14hasShortLengthEv(ptr noundef nonnull align 8 dereferenceable(64) %this) #0 comdat align 2 {
entry:
  %this.addr = alloca ptr, align 8
  store ptr %this, ptr %this.addr, align 8
  %this1 = load ptr, ptr %this.addr, align 8
  %fUnion = getelementptr inbounds %"class.icu_75::UnicodeString", ptr %this1, i32 0, i32 1
  %fLengthAndFlags = getelementptr inbounds %struct.anon.0, ptr %fUnion, i32 0, i32 0
  %0 = load i16, ptr %fLengthAndFlags, align 8
  %conv = sext i16 %0 to i32
  %cmp = icmp sge i32 %conv, 0
  %conv2 = zext i1 %cmp to i8
  ret i8 %conv2
}

; Function Attrs: mustprogress uwtable
define internal noundef signext i8 @_ZN6icu_7512_GLOBAL__N_110isNameOpenERKNS_13UnicodeStringEi(ptr noundef nonnull align 8 dereferenceable(64) %pattern, i32 noundef %pos) #1 {
entry:
  %pattern.addr = alloca ptr, align 8
  %pos.addr = alloca i32, align 4
  store ptr %pattern, ptr %pattern.addr, align 8
  store i32 %pos, ptr %pos.addr, align 4
  %0 = load ptr, ptr %pattern.addr, align 8
  %1 = load i32, ptr %pos.addr, align 4
  %call = call noundef zeroext i16 @_ZNK6icu_7513UnicodeString6charAtEi(ptr noundef nonnull align 8 dereferenceable(64) %0, i32 noundef %1)
  %conv = zext i16 %call to i32
  %cmp = icmp eq i32 %conv, 92
  br i1 %cmp, label %land.rhs, label %land.end

land.rhs:                                         ; preds = %entry
  %2 = load ptr, ptr %pattern.addr, align 8
  %3 = load i32, ptr %pos.addr, align 4
  %add = add nsw i32 %3, 1
  %call1 = call noundef zeroext i16 @_ZNK6icu_7513UnicodeString6charAtEi(ptr noundef nonnull align 8 dereferenceable(64) %2, i32 noundef %add)
  %conv2 = zext i16 %call1 to i32
  %cmp3 = icmp eq i32 %conv2, 78
  br label %land.end

land.end:                                         ; preds = %land.rhs, %entry
  %4 = phi i1 [ false, %entry ], [ %cmp3, %land.rhs ]
  %conv4 = zext i1 %4 to i8
  ret i8 %conv4
}

; Function Attrs: mustprogress uwtable
define internal noundef signext i8 @_ZN6icu_7512_GLOBAL__N_110isPerlOpenERKNS_13UnicodeStringEi(ptr noundef nonnull align 8 dereferenceable(64) %pattern, i32 noundef %pos) #1 {
entry:
  %pattern.addr = alloca ptr, align 8
  %pos.addr = alloca i32, align 4
  %c = alloca i16, align 2
  store ptr %pattern, ptr %pattern.addr, align 8
  store i32 %pos, ptr %pos.addr, align 4
  %0 = load ptr, ptr %pattern.addr, align 8
  %1 = load i32, ptr %pos.addr, align 4
  %call = call noundef zeroext i16 @_ZNK6icu_7513UnicodeString6charAtEi(ptr noundef nonnull align 8 dereferenceable(64) %0, i32 noundef %1)
  %conv = zext i16 %call to i32
  %cmp = icmp eq i32 %conv, 92
  br i1 %cmp, label %land.rhs, label %land.end

land.rhs:                                         ; preds = %entry
  %2 = load ptr, ptr %pattern.addr, align 8
  %3 = load i32, ptr %pos.addr, align 4
  %add = add nsw i32 %3, 1
  %call1 = call noundef zeroext i16 @_ZNK6icu_7513UnicodeString6charAtEi(ptr noundef nonnull align 8 dereferenceable(64) %2, i32 noundef %add)
  store i16 %call1, ptr %c, align 2
  %conv2 = zext i16 %call1 to i32
  %cmp3 = icmp eq i32 %conv2, 112
  br i1 %cmp3, label %lor.end, label %lor.rhs

lor.rhs:                                          ; preds = %land.rhs
  %4 = load i16, ptr %c, align 2
  %conv4 = zext i16 %4 to i32
  %cmp5 = icmp eq i32 %conv4, 80
  br label %lor.end

lor.end:                                          ; preds = %lor.rhs, %land.rhs
  %5 = phi i1 [ true, %land.rhs ], [ %cmp5, %lor.rhs ]
  br label %land.end

land.end:                                         ; preds = %lor.end, %entry
  %6 = phi i1 [ false, %entry ], [ %5, %lor.end ]
  %conv6 = zext i1 %6 to i8
  ret i8 %conv6
}

; Function Attrs: mustprogress uwtable
define internal noundef signext i8 @_ZN6icu_7512_GLOBAL__N_111isPOSIXOpenERKNS_13UnicodeStringEi(ptr noundef nonnull align 8 dereferenceable(64) %pattern, i32 noundef %pos) #1 {
entry:
  %pattern.addr = alloca ptr, align 8
  %pos.addr = alloca i32, align 4
  store ptr %pattern, ptr %pattern.addr, align 8
  store i32 %pos, ptr %pos.addr, align 4
  %0 = load ptr, ptr %pattern.addr, align 8
  %1 = load i32, ptr %pos.addr, align 4
  %call = call noundef zeroext i16 @_ZNK6icu_7513UnicodeString6charAtEi(ptr noundef nonnull align 8 dereferenceable(64) %0, i32 noundef %1)
  %conv = zext i16 %call to i32
  %cmp = icmp eq i32 %conv, 91
  br i1 %cmp, label %land.rhs, label %land.end

land.rhs:                                         ; preds = %entry
  %2 = load ptr, ptr %pattern.addr, align 8
  %3 = load i32, ptr %pos.addr, align 4
  %add = add nsw i32 %3, 1
  %call1 = call noundef zeroext i16 @_ZNK6icu_7513UnicodeString6charAtEi(ptr noundef nonnull align 8 dereferenceable(64) %2, i32 noundef %add)
  %conv2 = zext i16 %call1 to i32
  %cmp3 = icmp eq i32 %conv2, 58
  br label %land.end

land.end:                                         ; preds = %land.rhs, %entry
  %4 = phi i1 [ false, %entry ], [ %cmp3, %land.rhs ]
  %conv4 = zext i1 %4 to i8
  ret i8 %conv4
}

; Function Attrs: mustprogress uwtable
define linkonce_odr noundef i32 @_ZNK6icu_7513UnicodeString6lengthEv(ptr noundef nonnull align 8 dereferenceable(64) %this) #1 comdat align 2 {
entry:
  %this.addr = alloca ptr, align 8
  store ptr %this, ptr %this.addr, align 8
  %this1 = load ptr, ptr %this.addr, align 8
  %call = call noundef signext i8 @_ZNK6icu_7513UnicodeString14hasShortLengthEv(ptr noundef nonnull align 8 dereferenceable(64) %this1)
  %tobool = icmp ne i8 %call, 0
  br i1 %tobool, label %cond.true, label %cond.false

cond.true:                                        ; preds = %entry
  %call2 = call noundef i32 @_ZNK6icu_7513UnicodeString14getShortLengthEv(ptr noundef nonnull align 8 dereferenceable(64) %this1)
  br label %cond.end

cond.false:                                       ; preds = %entry
  %fUnion = getelementptr inbounds %"class.icu_75::UnicodeString", ptr %this1, i32 0, i32 1
  %fLength = getelementptr inbounds %struct.anon.0, ptr %fUnion, i32 0, i32 1
  %0 = load i32, ptr %fLength, align 4
  br label %cond.end

cond.end:                                         ; preds = %cond.false, %cond.true
  %cond = phi i32 [ %call2, %cond.true ], [ %0, %cond.false ]
  ret i32 %cond
}

; Function Attrs: mustprogress uwtable
define noundef signext i8 @_ZN6icu_7510UnicodeSet24resemblesPropertyPatternERKNS_13UnicodeStringEi(ptr noundef nonnull align 8 dereferenceable(64) %pattern, i32 noundef %pos) #1 align 2 {
entry:
  %retval = alloca i8, align 1
  %pattern.addr = alloca ptr, align 8
  %pos.addr = alloca i32, align 4
  store ptr %pattern, ptr %pattern.addr, align 8
  store i32 %pos, ptr %pos.addr, align 4
  %0 = load i32, ptr %pos.addr, align 4
  %add = add nsw i32 %0, 5
  %1 = load ptr, ptr %pattern.addr, align 8
  %call = call noundef i32 @_ZNK6icu_7513UnicodeString6lengthEv(ptr noundef nonnull align 8 dereferenceable(64) %1)
  %cmp = icmp sgt i32 %add, %call
  br i1 %cmp, label %if.then, label %if.end

if.then:                                          ; preds = %entry
  store i8 0, ptr %retval, align 1
  br label %return

if.end:                                           ; preds = %entry
  %2 = load ptr, ptr %pattern.addr, align 8
  %3 = load i32, ptr %pos.addr, align 4
  %call1 = call noundef signext i8 @_ZN6icu_7512_GLOBAL__N_111isPOSIXOpenERKNS_13UnicodeStringEi(ptr noundef nonnull align 8 dereferenceable(64) %2, i32 noundef %3)
  %tobool = icmp ne i8 %call1, 0
  br i1 %tobool, label %lor.end, label %lor.lhs.false

lor.lhs.false:                                    ; preds = %if.end
  %4 = load ptr, ptr %pattern.addr, align 8
  %5 = load i32, ptr %pos.addr, align 4
  %call2 = call noundef signext i8 @_ZN6icu_7512_GLOBAL__N_110isPerlOpenERKNS_13UnicodeStringEi(ptr noundef nonnull align 8 dereferenceable(64) %4, i32 noundef %5)
  %tobool3 = icmp ne i8 %call2, 0
  br i1 %tobool3, label %lor.end, label %lor.rhs

lor.rhs:                                          ; preds = %lor.lhs.false
  %6 = load ptr, ptr %pattern.addr, align 8
  %7 = load i32, ptr %pos.addr, align 4
  %call4 = call noundef signext i8 @_ZN6icu_7512_GLOBAL__N_110isNameOpenERKNS_13UnicodeStringEi(ptr noundef nonnull align 8 dereferenceable(64) %6, i32 noundef %7)
  %tobool5 = icmp ne i8 %call4, 0
  br label %lor.end

lor.end:                                          ; preds = %lor.rhs, %lor.lhs.false, %if.end
  %8 = phi i1 [ true, %lor.lhs.false ], [ true, %if.end ], [ %tobool5, %lor.rhs ]
  %conv = zext i1 %8 to i8
  store i8 %conv, ptr %retval, align 1
  br label %return

return:                                           ; preds = %lor.end, %if.then
  %9 = load i8, ptr %retval, align 1
  ret i8 %9
}