; Function Attrs: mustprogress nofree norecurse nosync nounwind willreturn memory(read, inaccessiblemem: none) uwtable
define noundef signext i8 @_ZN6icu_7510UnicodeSet24resemblesPropertyPatternERKNS_13UnicodeStringEi(ptr nocapture noundef nonnull readonly align 8 dereferenceable(64) %pattern, i32 noundef %pos) local_unnamed_addr #7 align 2 {
entry:
  %add = add nsw i32 %pos, 5
  %fUnion.i.i = getelementptr inbounds i8, ptr %pattern, i64 8
  %0 = load i16, ptr %fUnion.i.i, align 8
  %cmp.i.i = icmp slt i16 %0, 0
  %1 = ashr i16 %0, 5
  %shr.i.i = sext i16 %1 to i32
  %fLength.i = getelementptr inbounds i8, ptr %pattern, i64 12
  %2 = load i32, ptr %fLength.i, align 4
  %cond.i = select i1 %cmp.i.i, i32 %2, i32 %shr.i.i
  %cmp = icmp sle i32 %add, %cond.i
  %cmp.i.i.i = icmp ugt i32 %cond.i, %pos
  %or.cond = and i1 %cmp, %cmp.i.i.i
  br i1 %or.cond, label %_ZNK6icu_7513UnicodeString6charAtEi.exit.i, label %return

_ZNK6icu_7513UnicodeString6charAtEi.exit.i:       ; preds = %entry
  %3 = and i16 %0, 2
  %tobool.not.i.i.i.i = icmp eq i16 %3, 0
  %fBuffer.i.i.i.i = getelementptr inbounds i8, ptr %pattern, i64 10
  %fArray.i.i.i.i = getelementptr inbounds i8, ptr %pattern, i64 24
  %4 = load ptr, ptr %fArray.i.i.i.i, align 8
  %cond.i2.i.i.i = select i1 %tobool.not.i.i.i.i, ptr %4, ptr %fBuffer.i.i.i.i
  %idxprom.i.i.i = sext i32 %pos to i64
  %arrayidx.i.i.i = getelementptr inbounds i16, ptr %cond.i2.i.i.i, i64 %idxprom.i.i.i
  %5 = load i16, ptr %arrayidx.i.i.i, align 2
  switch i16 %5, label %return [
    i16 91, label %land.rhs.i
    i16 92, label %land.rhs.i21
  ]

land.rhs.i:                                       ; preds = %_ZNK6icu_7513UnicodeString6charAtEi.exit.i
  %add.i = add nuw nsw i32 %pos, 1
  %cmp.i.i8.i = icmp ugt i32 %cond.i, %add.i
  br i1 %cmp.i.i8.i, label %_ZN6icu_7512_GLOBAL__N_111isPOSIXOpenERKNS_13UnicodeStringEi.exit, label %_ZNK6icu_7513UnicodeString6charAtEi.exit.i34

_ZN6icu_7512_GLOBAL__N_111isPOSIXOpenERKNS_13UnicodeStringEi.exit: ; preds = %land.rhs.i
  %idxprom.i.i15.i = sext i32 %add.i to i64
  %arrayidx.i.i16.i = getelementptr inbounds i16, ptr %cond.i2.i.i.i, i64 %idxprom.i.i15.i
  %6 = load i16, ptr %arrayidx.i.i16.i, align 2
  %.not = icmp eq i16 %6, 58
  br i1 %.not, label %return, label %_ZNK6icu_7513UnicodeString6charAtEi.exit.i34

land.rhs.i21:                                     ; preds = %_ZNK6icu_7513UnicodeString6charAtEi.exit.i
  %add.i22 = add nuw nsw i32 %pos, 1
  %cmp.i.i8.i23 = icmp ugt i32 %cond.i, %add.i22
  br i1 %cmp.i.i8.i23, label %_ZN6icu_7512_GLOBAL__N_110isPerlOpenERKNS_13UnicodeStringEi.exit, label %land.rhs.i42

_ZN6icu_7512_GLOBAL__N_110isPerlOpenERKNS_13UnicodeStringEi.exit: ; preds = %land.rhs.i21
  %idxprom.i.i15.i25 = sext i32 %add.i22 to i64
  %arrayidx.i.i16.i26 = getelementptr inbounds i16, ptr %cond.i2.i.i.i, i64 %idxprom.i.i15.i25
  %7 = load i16, ptr %arrayidx.i.i16.i26, align 2
  %8 = and i16 %7, -33
  %.not54 = icmp eq i16 %8, 80
  br i1 %.not54, label %return, label %land.rhs.i42

_ZNK6icu_7513UnicodeString6charAtEi.exit.i34:     ; preds = %land.rhs.i, %_ZN6icu_7512_GLOBAL__N_111isPOSIXOpenERKNS_13UnicodeStringEi.exit
  br label %return

land.rhs.i42:                                     ; preds = %land.rhs.i21, %_ZN6icu_7512_GLOBAL__N_110isPerlOpenERKNS_13UnicodeStringEi.exit
  %add.i43 = add nuw nsw i32 %pos, 1
  %cmp.i.i8.i44 = icmp ugt i32 %cond.i, %add.i43
  br i1 %cmp.i.i8.i44, label %if.then.i.i10.i45, label %return

if.then.i.i10.i45:                                ; preds = %land.rhs.i42
  %idxprom.i.i15.i46 = sext i32 %add.i43 to i64
  %arrayidx.i.i16.i47 = getelementptr inbounds i16, ptr %cond.i2.i.i.i, i64 %idxprom.i.i15.i46
  %9 = load i16, ptr %arrayidx.i.i16.i47, align 2
  %10 = icmp eq i16 %9, 78
  %11 = zext i1 %10 to i8
  br label %return

return:                                           ; preds = %_ZNK6icu_7513UnicodeString6charAtEi.exit.i, %_ZNK6icu_7513UnicodeString6charAtEi.exit.i34, %if.then.i.i10.i45, %land.rhs.i42, %_ZN6icu_7512_GLOBAL__N_111isPOSIXOpenERKNS_13UnicodeStringEi.exit, %_ZN6icu_7512_GLOBAL__N_110isPerlOpenERKNS_13UnicodeStringEi.exit, %entry
  %retval.0 = phi i8 [ 0, %entry ], [ 1, %_ZN6icu_7512_GLOBAL__N_110isPerlOpenERKNS_13UnicodeStringEi.exit ], [ 1, %_ZN6icu_7512_GLOBAL__N_111isPOSIXOpenERKNS_13UnicodeStringEi.exit ], [ 0, %_ZNK6icu_7513UnicodeString6charAtEi.exit.i34 ], [ %11, %if.then.i.i10.i45 ], [ 0, %land.rhs.i42 ], [ 0, %_ZNK6icu_7513UnicodeString6charAtEi.exit.i ]
  ret i8 %retval.0
}